target datalayout = "e-m:e-p270:32:32-p271:32:32-p272:64:64-i64:64-i128:128-f80:128-n8:16:32:64-S128"
target triple = "x86_64-pc-linux-gnu"

%struct.lv_ll_t = type { i32, ptr, ptr }
%struct._lv_display_t = type { i32, i32, i32, i32, i32, i32, i32, ptr, ptr, ptr, ptr, ptr, i32, i32, i8, i32, i16, i32, [32 x %struct.lv_area_t], [32 x i8], i32, i32, %struct.lv_ll_t, %struct._lv_draw_buf_t, %struct._lv_draw_buf_t, ptr, ptr, ptr, ptr, ptr, ptr, ptr, ptr, ptr, ptr, i32, i8, ptr, ptr, %struct.lv_event_list_t, i8, ptr, ptr, i32, %struct.lv_area_t }
%struct._lv_draw_buf_t = type { %struct.lv_image_header_t, i32, ptr, ptr, ptr }
%struct.lv_image_header_t = type <{ i64, i32 }>
%struct.lv_event_list_t = type { %struct._lv_array_t, i8 }
%struct._lv_array_t = type { ptr, i32, i32, i32, i8 }
%struct.lv_area_t = type { i32, i32, i32, i32 }

; Function Attrs: nounwind uwtable
define void @lv_refr_now(ptr noundef %0) #0 {
  %2 = alloca ptr, align 8
  %3 = alloca ptr, align 8
  store ptr %0, ptr %2, align 8, !tbaa !3
  call void @lv_anim_refr_now()
  %4 = load ptr, ptr %2, align 8, !tbaa !3
  %5 = icmp ne ptr %4, null
  br i1 %5, label %6, label %16

6:                                                ; preds = %1
  %7 = load ptr, ptr %2, align 8, !tbaa !3
  %8 = getelementptr inbounds nuw %struct._lv_display_t, ptr %7, i32 0, i32 42
  %9 = load ptr, ptr %8, align 8, !tbaa !7
  %10 = icmp ne ptr %9, null
  br i1 %10, label %11, label %15

11:                                               ; preds = %6
  %12 = load ptr, ptr %2, align 8, !tbaa !3
  %13 = getelementptr inbounds nuw %struct._lv_display_t, ptr %12, i32 0, i32 42
  %14 = load ptr, ptr %13, align 8, !tbaa !7
  call void @lv_display_refr_timer(ptr noundef %14)
  br label %15

15:                                               ; preds = %11, %6
  br label %34

16:                                               ; preds = %1
  call void @llvm.lifetime.start.p0(i64 8, ptr %3) #6
  %17 = call ptr @lv_display_get_next(ptr noundef null)
  store ptr %17, ptr %3, align 8, !tbaa !3
  br label %18

18:                                               ; preds = %30, %16
  %19 = load ptr, ptr %3, align 8, !tbaa !3
  %20 = icmp ne ptr %19, null
  br i1 %20, label %21, label %33

21:                                               ; preds = %18
  %22 = load ptr, ptr %3, align 8, !tbaa !3
  %23 = getelementptr inbounds nuw %struct._lv_display_t, ptr %22, i32 0, i32 42
  %24 = load ptr, ptr %23, align 8, !tbaa !7
  %25 = icmp ne ptr %24, null
  br i1 %25, label %26, label %30

26:                                               ; preds = %21
  %27 = load ptr, ptr %3, align 8, !tbaa !3
  %28 = getelementptr inbounds nuw %struct._lv_display_t, ptr %27, i32 0, i32 42
  %29 = load ptr, ptr %28, align 8, !tbaa !7
  call void @lv_display_refr_timer(ptr noundef %29)
  br label %30

30:                                               ; preds = %26, %21
  %31 = load ptr, ptr %3, align 8, !tbaa !3
  %32 = call ptr @lv_display_get_next(ptr noundef %31)
  store ptr %32, ptr %3, align 8, !tbaa !3
  br label %18, !llvm.loop !17

33:                                               ; preds = %18
  call void @llvm.lifetime.end.p0(i64 8, ptr %3) #6
  br label %34

34:                                               ; preds = %33, %15
  ret void
}