; Function Attrs: nounwind uwtable
define void @lv_refr_now(ptr noundef readonly %0) local_unnamed_addr #1 {
  tail call void @lv_anim_refr_now() #9
  %.not = icmp eq ptr %0, null
  br i1 %.not, label %6, label %2

2:                                                ; preds = %1
  %3 = getelementptr inbounds nuw i8, ptr %0, i64 904
  %4 = load ptr, ptr %3, align 8, !tbaa !3
  %.not12 = icmp eq ptr %4, null
  br i1 %.not12, label %.loopexit, label %5

5:                                                ; preds = %2
  tail call void @lv_display_refr_timer(ptr noundef nonnull %4)
  br label %.loopexit

6:                                                ; preds = %1
  %7 = tail call ptr @lv_display_get_next(ptr noundef null) #9
  %.not1013 = icmp eq ptr %7, null
  br i1 %.not1013, label %.loopexit, label %.lr.ph

.lr.ph:                                           ; preds = %6, %11
  %.014 = phi ptr [ %12, %11 ], [ %7, %6 ]
  %8 = getelementptr inbounds nuw i8, ptr %.014, i64 904
  %9 = load ptr, ptr %8, align 8, !tbaa !3
  %.not11 = icmp eq ptr %9, null
  br i1 %.not11, label %11, label %10

10:                                               ; preds = %.lr.ph
  tail call void @lv_display_refr_timer(ptr noundef nonnull %9)
  br label %11

11:                                               ; preds = %10, %.lr.ph
  %12 = tail call ptr @lv_display_get_next(ptr noundef nonnull %.014) #9
  %.not10 = icmp eq ptr %12, null
  br i1 %.not10, label %.loopexit, label %.lr.ph, !llvm.loop !16

.loopexit:                                        ; preds = %11, %6, %2, %5
  ret void
}